target datalayout = "e-m:e-p270:32:32-p271:32:32-p272:64:64-i64:64-i128:128-f80:128-n8:16:32:64-S128"
target triple = "x86_64-pc-linux-gnu"

@.str.4 = private unnamed_addr constant [12 x i8] c"'()+,-./:=?\00", align 1

; Function Attrs: nounwind uwtable
define internal i32 @is_printable(i64 noundef %0) #0 {
  %2 = alloca i32, align 4
  %3 = alloca i64, align 8
  %4 = alloca i32, align 4
  %5 = alloca i32, align 4
  store i64 %0, ptr %3, align 8, !tbaa !15
  call void @llvm.lifetime.start.p0(i64 4, ptr %4) #6
  %6 = load i64, ptr %3, align 8, !tbaa !15
  %7 = icmp ugt i64 %6, 127
  br i1 %7, label %8, label %9

8:                                                ; preds = %1
  store i32 0, ptr %2, align 4
  store i32 1, ptr %5, align 4
  br label %41

9:                                                ; preds = %1
  %10 = load i64, ptr %3, align 8, !tbaa !15
  %11 = trunc i64 %10 to i32
  store i32 %11, ptr %4, align 4, !tbaa !13
  %12 = load i32, ptr %4, align 4, !tbaa !13
  %13 = icmp sge i32 %12, 97
  br i1 %13, label %14, label %18

14:                                               ; preds = %9
  %15 = load i32, ptr %4, align 4, !tbaa !13
  %16 = icmp sle i32 %15, 122
  br i1 %16, label %17, label %18

17:                                               ; preds = %14
  store i32 1, ptr %2, align 4
  store i32 1, ptr %5, align 4
  br label %41

18:                                               ; preds = %14, %9
  %19 = load i32, ptr %4, align 4, !tbaa !13
  %20 = icmp sge i32 %19, 65
  br i1 %20, label %21, label %25

21:                                               ; preds = %18
  %22 = load i32, ptr %4, align 4, !tbaa !13
  %23 = icmp sle i32 %22, 90
  br i1 %23, label %24, label %25

24:                                               ; preds = %21
  store i32 1, ptr %2, align 4
  store i32 1, ptr %5, align 4
  br label %41

25:                                               ; preds = %21, %18
  %26 = load i32, ptr %4, align 4, !tbaa !13
  %27 = icmp sge i32 %26, 48
  br i1 %27, label %28, label %32

28:                                               ; preds = %25
  %29 = load i32, ptr %4, align 4, !tbaa !13
  %30 = icmp sle i32 %29, 57
  br i1 %30, label %31, label %32

31:                                               ; preds = %28
  store i32 1, ptr %2, align 4
  store i32 1, ptr %5, align 4
  br label %41

32:                                               ; preds = %28, %25
  %33 = load i32, ptr %4, align 4, !tbaa !13
  %34 = icmp eq i32 %33, 32
  br i1 %34, label %39, label %35

35:                                               ; preds = %32
  %36 = load i32, ptr %4, align 4, !tbaa !13
  %37 = call ptr @strchr(ptr noundef @.str.4, i32 noundef %36) #7
  %38 = icmp ne ptr %37, null
  br i1 %38, label %39, label %40

39:                                               ; preds = %35, %32
  store i32 1, ptr %2, align 4
  store i32 1, ptr %5, align 4
  br label %41

40:                                               ; preds = %35
  store i32 0, ptr %2, align 4
  store i32 1, ptr %5, align 4
  br label %41

41:                                               ; preds = %40, %39, %31, %24, %17, %8
  call void @llvm.lifetime.end.p0(i64 4, ptr %4) #6
  %42 = load i32, ptr %2, align 4
  ret i32 %42
}

; Function Attrs: nounwind uwtable
define internal i32 @type_str(i64 noundef %0, ptr noundef %1) #0 {
  %3 = alloca i32, align 4
  %4 = alloca i64, align 8
  %5 = alloca ptr, align 8
  %6 = alloca i64, align 8
  %7 = alloca i32, align 4
  store i64 %0, ptr %4, align 8, !tbaa !15
  store ptr %1, ptr %5, align 8, !tbaa !17
  call void @llvm.lifetime.start.p0(i64 8, ptr %6) #6
  %8 = load ptr, ptr %5, align 8, !tbaa !17
  %9 = load i64, ptr %8, align 8, !tbaa !15
  store i64 %9, ptr %6, align 8, !tbaa !15
  %10 = load i64, ptr %6, align 8, !tbaa !15
  %11 = and i64 %10, 2
  %12 = icmp ne i64 %11, 0
  br i1 %12, label %13, label %20

13:                                               ; preds = %2
  %14 = load i64, ptr %4, align 8, !tbaa !15
  %15 = call i32 @is_printable(i64 noundef %14)
  %16 = icmp ne i32 %15, 0
  br i1 %16, label %20, label %17

17:                                               ; preds = %13
  %18 = load i64, ptr %6, align 8, !tbaa !15
  %19 = and i64 %18, -3
  store i64 %19, ptr %6, align 8, !tbaa !15
  br label %20

20:                                               ; preds = %17, %13, %2
  %21 = load i64, ptr %6, align 8, !tbaa !15
  %22 = and i64 %21, 16
  %23 = icmp ne i64 %22, 0
  br i1 %23, label %24, label %30

24:                                               ; preds = %20
  %25 = load i64, ptr %4, align 8, !tbaa !15
  %26 = icmp ugt i64 %25, 127
  br i1 %26, label %27, label %30

27:                                               ; preds = %24
  %28 = load i64, ptr %6, align 8, !tbaa !15
  %29 = and i64 %28, -17
  store i64 %29, ptr %6, align 8, !tbaa !15
  br label %30

30:                                               ; preds = %27, %24, %20
  %31 = load i64, ptr %6, align 8, !tbaa !15
  %32 = and i64 %31, 4
  %33 = icmp ne i64 %32, 0
  br i1 %33, label %34, label %40

34:                                               ; preds = %30
  %35 = load i64, ptr %4, align 8, !tbaa !15
  %36 = icmp ugt i64 %35, 255
  br i1 %36, label %37, label %40

37:                                               ; preds = %34
  %38 = load i64, ptr %6, align 8, !tbaa !15
  %39 = and i64 %38, -5
  store i64 %39, ptr %6, align 8, !tbaa !15
  br label %40

40:                                               ; preds = %37, %34, %30
  %41 = load i64, ptr %6, align 8, !tbaa !15
  %42 = and i64 %41, 2048
  %43 = icmp ne i64 %42, 0
  br i1 %43, label %44, label %50

44:                                               ; preds = %40
  %45 = load i64, ptr %4, align 8, !tbaa !15
  %46 = icmp ugt i64 %45, 65535
  br i1 %46, label %47, label %50

47:                                               ; preds = %44
  %48 = load i64, ptr %6, align 8, !tbaa !15
  %49 = and i64 %48, -2049
  store i64 %49, ptr %6, align 8, !tbaa !15
  br label %50

50:                                               ; preds = %47, %44, %40
  %51 = load i64, ptr %6, align 8, !tbaa !15
  %52 = icmp ne i64 %51, 0
  br i1 %52, label %54, label %53

53:                                               ; preds = %50
  store i32 -1, ptr %3, align 4
  store i32 1, ptr %7, align 4
  br label %57

54:                                               ; preds = %50
  %55 = load i64, ptr %6, align 8, !tbaa !15
  %56 = load ptr, ptr %5, align 8, !tbaa !17
  store i64 %55, ptr %56, align 8, !tbaa !15
  store i32 1, ptr %3, align 4
  store i32 1, ptr %7, align 4
  br label %57

57:                                               ; preds = %54, %53
  call void @llvm.lifetime.end.p0(i64 8, ptr %6) #6
  %58 = load i32, ptr %3, align 4
  ret i32 %58
}