; Function Attrs: mustprogress nofree norecurse nosync nounwind willreturn memory(argmem: readwrite) uwtable
define internal range(i32 -1, 2) i32 @type_str(i64 noundef %0, ptr noundef captures(none) %1) #4 {
  %3 = load i64, ptr %1, align 8, !tbaa !6
  %4 = and i64 %3, 2
  %.not = icmp eq i64 %4, 0
  br i1 %.not, label %is_printable.exit.thread28, label %5

5:                                                ; preds = %2
  %6 = icmp ugt i64 %0, 127
  br i1 %6, label %is_printable.exit.thread, label %8

is_printable.exit.thread:                         ; preds = %5
  %7 = and i64 %3, -3
  br label %is_printable.exit.thread28

8:                                                ; preds = %5
  %9 = and i64 %0, 95
  %10 = add nsw i64 %9, -65
  %or.cond19.i = icmp ult i64 %10, 26
  %11 = add nsw i64 %0, -48
  %or.cond5.i = icmp ult i64 %11, 10
  %or.cond20.i = select i1 %or.cond19.i, i1 true, i1 %or.cond5.i
  %12 = icmp eq i64 %0, 32
  %or.cond21.i = or i1 %12, %or.cond20.i
  br i1 %or.cond21.i, label %is_printable.exit.thread28, label %is_printable.exit

is_printable.exit:                                ; preds = %8
  %memchr.bounds.i = icmp samesign ugt i64 %0, 63
  %13 = shl nuw i64 1, %0
  %.fr32 = freeze i64 %13
  %14 = and i64 %.fr32, -6629022124314984447
  %memchr.bits.i = icmp eq i64 %14, 0
  %memchr18.not.not.i.not = or i1 %memchr.bounds.i, %memchr.bits.i
  %15 = and i64 %3, -3
  %spec.select = select i1 %memchr18.not.not.i.not, i64 %15, i64 %3
  br label %is_printable.exit.thread28

is_printable.exit.thread28:                       ; preds = %is_printable.exit, %8, %is_printable.exit.thread, %2
  %.0 = phi i64 [ %3, %2 ], [ %7, %is_printable.exit.thread ], [ %3, %8 ], [ %spec.select, %is_printable.exit ]
  %16 = icmp ugt i64 %0, 127
  %17 = and i64 %.0, -17
  %spec.select24 = select i1 %16, i64 %17, i64 %.0
  %18 = icmp ugt i64 %0, 255
  %19 = and i64 %spec.select24, -5
  %.2 = select i1 %18, i64 %19, i64 %spec.select24
  %20 = icmp ugt i64 %0, 65535
  %21 = and i64 %.2, -2049
  %.3 = select i1 %20, i64 %21, i64 %.2
  %.not23 = icmp eq i64 %.3, 0
  br i1 %.not23, label %23, label %22

22:                                               ; preds = %is_printable.exit.thread28
  store i64 %.3, ptr %1, align 8, !tbaa !6
  br label %23

23:                                               ; preds = %is_printable.exit.thread28, %22
  %.021 = phi i32 [ 1, %22 ], [ -1, %is_printable.exit.thread28 ]
  ret i32 %.021
}